; Function Attrs: mustprogress uwtable
define hidden void @_ZN19OpenColorIO_v2_5dev18Lin2LogRendererSSEC2ERSt10shared_ptrIKNS_9LogOpDataEE(ptr noundef nonnull align 8 dereferenceable(136) initializes((0, 12), (16, 88)) %0, ptr noundef nonnull readonly align 8 captures(none) dereferenceable(16) %1) unnamed_addr #3 align 2 personality ptr @__gxx_personality_v0 {
  %3 = getelementptr inbounds nuw i8, ptr %0, i64 8
  store float 2.000000e+00, ptr %3, align 8, !tbaa !96
  %4 = getelementptr inbounds nuw i8, ptr %0, i64 16
  tail call void @llvm.memset.p0.i64(ptr noundef nonnull align 8 dereferenceable(72) %4, i8 0, i64 72, i1 false)
  store ptr getelementptr inbounds nuw inrange(-16, 56) (i8, ptr @_ZTVN19OpenColorIO_v2_5dev15Lin2LogRendererE, i64 16), ptr %0, align 8, !tbaa !44
  invoke void @_ZN19OpenColorIO_v2_5dev15Lin2LogRenderer10updateDataERSt10shared_ptrIKNS_9LogOpDataEE(ptr noundef nonnull align 8 dereferenceable(136) %0, ptr noundef nonnull readonly align 8 dereferenceable(16) %1)
          to label %_ZN19OpenColorIO_v2_5dev15Lin2LogRendererC2ERSt10shared_ptrIKNS_9LogOpDataEE.exit unwind label %5

5:                                                ; preds = %2
  %6 = landingpad { ptr, i32 }
          cleanup
  tail call void @_ZN19OpenColorIO_v2_5dev15L2LBaseRendererD2Ev(ptr noundef nonnull align 8 dereferenceable(136) %0) #26
  resume { ptr, i32 } %6

_ZN19OpenColorIO_v2_5dev15Lin2LogRendererC2ERSt10shared_ptrIKNS_9LogOpDataEE.exit: ; preds = %2
  store ptr getelementptr inbounds nuw inrange(-16, 56) (i8, ptr @_ZTVN19OpenColorIO_v2_5dev18Lin2LogRendererSSEE, i64 16), ptr %0, align 8, !tbaa !44
  ret void
}